target datalayout = "e-m:e-p270:32:32-p271:32:32-p272:64:64-i64:64-i128:128-f80:128-n8:16:32:64-S128"
target triple = "x86_64-pc-linux-gnu"

@ff_log2_tab = external constant [256 x i8], align 16
@.str.45 = private unnamed_addr constant [30 x i8] c"Assertion %s failed at %s:%d\0A\00", align 1
@.str.47 = private unnamed_addr constant [26 x i8] c"libavformat/matroskaenc.c\00", align 1
@.str.98 = private unnamed_addr constant [10 x i8] c"size >= 2\00", align 1

; Function Attrs: alwaysinline nounwind willreturn memory(none) uwtable
define internal i32 @ff_log2_c(i32 noundef %0) #6 {
  %2 = alloca i32, align 4
  %3 = alloca i32, align 4
  store i32 %0, ptr %2, align 4, !tbaa !30
  call void @llvm.lifetime.start.p0(i64 4, ptr %3) #16
  store i32 0, ptr %3, align 4, !tbaa !30
  %4 = load i32, ptr %2, align 4, !tbaa !30
  %5 = and i32 %4, -65536
  %6 = icmp ne i32 %5, 0
  br i1 %6, label %7, label %12

7:                                                ; preds = %1
  %8 = load i32, ptr %2, align 4, !tbaa !30
  %9 = lshr i32 %8, 16
  store i32 %9, ptr %2, align 4, !tbaa !30
  %10 = load i32, ptr %3, align 4, !tbaa !30
  %11 = add nsw i32 %10, 16
  store i32 %11, ptr %3, align 4, !tbaa !30
  br label %12

12:                                               ; preds = %7, %1
  %13 = load i32, ptr %2, align 4, !tbaa !30
  %14 = and i32 %13, 65280
  %15 = icmp ne i32 %14, 0
  br i1 %15, label %16, label %21

16:                                               ; preds = %12
  %17 = load i32, ptr %2, align 4, !tbaa !30
  %18 = lshr i32 %17, 8
  store i32 %18, ptr %2, align 4, !tbaa !30
  %19 = load i32, ptr %3, align 4, !tbaa !30
  %20 = add nsw i32 %19, 8
  store i32 %20, ptr %3, align 4, !tbaa !30
  br label %21

21:                                               ; preds = %16, %12
  %22 = load i32, ptr %2, align 4, !tbaa !30
  %23 = zext i32 %22 to i64
  %24 = getelementptr inbounds nuw [256 x i8], ptr @ff_log2_tab, i64 0, i64 %23
  %25 = load i8, ptr %24, align 1, !tbaa !122
  %26 = zext i8 %25 to i32
  %27 = load i32, ptr %3, align 4, !tbaa !30
  %28 = add nsw i32 %27, %26
  store i32 %28, ptr %3, align 4, !tbaa !30
  %29 = load i32, ptr %3, align 4, !tbaa !30
  call void @llvm.lifetime.end.p0(i64 4, ptr %3) #16
  ret i32 %29
}

; Function Attrs: nounwind uwtable
define internal i32 @ebml_id_size(i32 noundef %0) #0 {
  %2 = alloca i32, align 4
  store i32 %0, ptr %2, align 4, !tbaa !30
  %3 = load i32, ptr %2, align 4, !tbaa !30
  %4 = call i32 @ff_log2_c(i32 noundef %3) #19
  %5 = add i32 %4, 7
  %6 = udiv i32 %5, 8
  ret i32 %6
}

; Function Attrs: nounwind uwtable
define internal void @put_ebml_id(ptr noundef %0, i32 noundef %1) #0 {
  %3 = alloca ptr, align 8
  %4 = alloca i32, align 4
  %5 = alloca i32, align 4
  store ptr %0, ptr %3, align 8, !tbaa !29
  store i32 %1, ptr %4, align 4, !tbaa !30
  call void @llvm.lifetime.start.p0(i64 4, ptr %5) #16
  %6 = load i32, ptr %4, align 4, !tbaa !30
  %7 = call i32 @ebml_id_size(i32 noundef %6)
  store i32 %7, ptr %5, align 4, !tbaa !30
  br label %8

8:                                                ; preds = %12, %2
  %9 = load i32, ptr %5, align 4, !tbaa !30
  %10 = add nsw i32 %9, -1
  store i32 %10, ptr %5, align 4, !tbaa !30
  %11 = icmp ne i32 %9, 0
  br i1 %11, label %12, label %20

12:                                               ; preds = %8
  %13 = load ptr, ptr %3, align 8, !tbaa !29
  %14 = load i32, ptr %4, align 4, !tbaa !30
  %15 = load i32, ptr %5, align 4, !tbaa !30
  %16 = mul nsw i32 %15, 8
  %17 = lshr i32 %14, %16
  %18 = trunc i32 %17 to i8
  %19 = zext i8 %18 to i32
  call void @avio_w8(ptr noundef %13, i32 noundef %19)
  br label %8, !llvm.loop !140

20:                                               ; preds = %8
  call void @llvm.lifetime.end.p0(i64 4, ptr %5) #16
  ret void
}

; Function Attrs: nounwind uwtable
define internal void @put_ebml_void(ptr noundef %0, i32 noundef %1) #0 {
  %3 = alloca ptr, align 8
  %4 = alloca i32, align 4
  store ptr %0, ptr %3, align 8, !tbaa !29
  store i32 %1, ptr %4, align 4, !tbaa !30
  br label %5

5:                                                ; preds = %2
  %6 = load i32, ptr %4, align 4, !tbaa !30
  %7 = icmp sge i32 %6, 2
  br i1 %7, label %9, label %8

8:                                                ; preds = %5
  call void (ptr, i32, ptr, ...) @av_log(ptr noundef null, i32 noundef 0, ptr noundef @.str.45, ptr noundef @.str.98, ptr noundef @.str.47, i32 noundef 416)
  call void @abort() #17
  unreachable

9:                                                ; preds = %5
  br label %10

10:                                               ; preds = %9
  %11 = load ptr, ptr %3, align 8, !tbaa !29
  call void @put_ebml_id(ptr noundef %11, i32 noundef 236)
  %12 = load i32, ptr %4, align 4, !tbaa !30
  %13 = icmp slt i32 %12, 10
  br i1 %13, label %14, label %20

14:                                               ; preds = %10
  %15 = load i32, ptr %4, align 4, !tbaa !30
  %16 = sub nsw i32 %15, 2
  store i32 %16, ptr %4, align 4, !tbaa !30
  %17 = load ptr, ptr %3, align 8, !tbaa !29
  %18 = load i32, ptr %4, align 4, !tbaa !30
  %19 = sext i32 %18 to i64
  call void @put_ebml_length(ptr noundef %17, i64 noundef %19, i32 noundef 0)
  br label %26

20:                                               ; preds = %10
  %21 = load i32, ptr %4, align 4, !tbaa !30
  %22 = sub nsw i32 %21, 9
  store i32 %22, ptr %4, align 4, !tbaa !30
  %23 = load ptr, ptr %3, align 8, !tbaa !29
  %24 = load i32, ptr %4, align 4, !tbaa !30
  %25 = sext i32 %24 to i64
  call void @put_ebml_length(ptr noundef %23, i64 noundef %25, i32 noundef 8)
  br label %26

26:                                               ; preds = %20, %14
  %27 = load ptr, ptr %3, align 8, !tbaa !29
  %28 = load i32, ptr %4, align 4, !tbaa !30
  %29 = sext i32 %28 to i64
  call void @ffio_fill(ptr noundef %27, i32 noundef 0, i64 noundef %29)
  ret void
}