; Function Attrs: nounwind uwtable
define internal fastcc void @put_ebml_void(ptr noundef %0, i32 noundef %1) unnamed_addr #0 {
  %3 = icmp sgt i32 %1, 1
  br i1 %3, label %5, label %4

4:                                                ; preds = %2
  tail call void (ptr, i32, ptr, ...) @av_log(ptr noundef null, i32 noundef 0, ptr noundef nonnull @.str.45, ptr noundef nonnull @.str.98, ptr noundef nonnull @.str.47, i32 noundef 416) #14
  tail call void @abort() #17
  unreachable

5:                                                ; preds = %2
  %6 = load i8, ptr getelementptr inbounds nuw (i8, ptr @ff_log2_tab, i64 236), align 4, !tbaa !50
  %.not4.i = icmp eq i8 %6, 0
  br i1 %.not4.i, label %put_ebml_id.exit, label %.lr.ph.preheader.i

.lr.ph.preheader.i:                               ; preds = %5
  %7 = zext i8 %6 to i32
  %8 = add nuw nsw i32 %7, 7
  %9 = lshr i32 %8, 3
  br label %.lr.ph.i

.lr.ph.i:                                         ; preds = %.lr.ph.i, %.lr.ph.preheader.i
  %.05.i = phi i32 [ %10, %.lr.ph.i ], [ %9, %.lr.ph.preheader.i ]
  %10 = add nsw i32 %.05.i, -1
  %11 = shl nsw i32 %10, 3
  %12 = lshr i32 236, %11
  tail call void @avio_w8(ptr noundef %0, i32 noundef %12) #14
  %.not.i = icmp eq i32 %10, 0
  br i1 %.not.i, label %put_ebml_id.exit, label %.lr.ph.i, !llvm.loop !51

put_ebml_id.exit:                                 ; preds = %.lr.ph.i, %5
  %13 = icmp samesign ult i32 %1, 10
  %. = select i1 %13, i32 -2, i32 -9
  %.13 = select i1 %13, i32 0, i32 8
  %14 = add nsw i32 %1, %.
  %15 = zext nneg i32 %14 to i64
  tail call fastcc void @put_ebml_length(ptr noundef %0, i64 noundef %15, i32 noundef %.13)
  tail call void @ffio_fill(ptr noundef %0, i32 noundef 0, i64 noundef %15) #14
  ret void
}